; Function Attrs: mustprogress nounwind uwtable
define hidden noundef zeroext i1 @_ZN9ZDirector13wait_for_tickEv(ptr noundef nonnull align 8 dereferenceable(1009) %0) local_unnamed_addr #0 align 2 {
  %2 = getelementptr inbounds i8, ptr %0, i64 920
  %3 = tail call i32 @pthread_mutex_lock(ptr noundef nonnull %2) #11
  %4 = getelementptr inbounds i8, ptr %0, i64 1008
  %5 = load i8, ptr %4, align 8
  %6 = trunc i8 %5 to i1
  br i1 %6, label %_ZN7ZLockerI14ZConditionLockED2Ev.exit, label %7

7:                                                ; preds = %1
  %8 = tail call noundef i32 @_ZN15PlatformMonitor4waitEm(ptr noundef nonnull align 8 dereferenceable(88) %2, i64 noundef 10) #11
  br label %_ZN7ZLockerI14ZConditionLockED2Ev.exit

_ZN7ZLockerI14ZConditionLockED2Ev.exit:           ; preds = %1, %7
  %.0 = xor i1 %6, true
  %9 = tail call i32 @pthread_mutex_unlock(ptr noundef nonnull %2) #11
  ret i1 %.0
}